; Function Attrs: mustprogress uwtable
define dso_local noundef ptr @_ZN4Plan8FindWorkEv(ptr noundef nonnull align 8 dereferenceable(120) %0) local_unnamed_addr #2 align 2 {
  %2 = getelementptr inbounds nuw i8, ptr %0, i64 48
  %3 = load ptr, ptr %2, align 8, !tbaa !135
  %4 = getelementptr inbounds nuw i8, ptr %0, i64 56
  %5 = load ptr, ptr %4, align 8, !tbaa !135
  %6 = icmp eq ptr %3, %5
  br i1 %6, label %9, label %7

7:                                                ; preds = %1
  %8 = load ptr, ptr %3, align 8, !tbaa !88
  tail call void @_ZNSt14priority_queueIP4EdgeSt6vectorIS1_SaIS1_EE16EdgePriorityLessE3popEv(ptr noundef nonnull align 8 dereferenceable(25) %2)
  br label %9

9:                                                ; preds = %1, %7
  %.0 = phi ptr [ %8, %7 ], [ null, %1 ]
  ret ptr %.0
}